(dp0
S'SS1111'
p1
(i__main__
Person
p2
(dp3
S'phoneNumber'
p4
S'123-123-1233'
p5
sS'name'
p6
S'Williams W Witty'
p7
sS'ID'
p8
g1
sbsS'SA9384'
p9
(i__main__
Person
p10
(dp11
g4
S'123-123-1233'
p12
sg6
S'Krishna K Krishna'
p13
sg8
g9
sbsS'WH1234'
p14
(i__main__
Person
p15
(dp16
g4
S'123-123-1233'
p17
sg6
S'Smith S Smitty'
p18
sg8
g14
sbsS'OF4321'
p19
(i__main__
Person
p20
(dp21
g4
S'123-123-1233'
p22
sg6
S'Luka L Luka'
p23
sg8
g19
sbsS'RR1111'
p24
(i__main__
Person
p25
(dp26
g4
S'123-123-1233'
p27
sg6
S'Jason X Jake'
p28
sg8
g24
sbs.